target datalayout = "e-m:e-p270:32:32-p271:32:32-p272:64:64-i64:64-i128:128-f80:128-n8:16:32:64-S128"
target triple = "x86_64-pc-linux-gnu"

%union.av_intfloat32 = type { i32 }

; Function Attrs: alwaysinline nounwind willreturn memory(none) uwtable
define internal float @av_clipf_c(float noundef %0, float noundef %1, float noundef %2) #4 {
  %4 = alloca float, align 4
  %5 = alloca float, align 4
  %6 = alloca float, align 4
  store float %0, ptr %4, align 4, !tbaa !135
  store float %1, ptr %5, align 4, !tbaa !135
  store float %2, ptr %6, align 4, !tbaa !135
  %7 = load float, ptr %4, align 4, !tbaa !135
  %8 = load float, ptr %5, align 4, !tbaa !135
  %9 = fcmp nsz ogt float %7, %8
  br i1 %9, label %10, label %12

10:                                               ; preds = %3
  %11 = load float, ptr %4, align 4, !tbaa !135
  br label %14

12:                                               ; preds = %3
  %13 = load float, ptr %5, align 4, !tbaa !135
  br label %14

14:                                               ; preds = %12, %10
  %15 = phi nsz float [ %11, %10 ], [ %13, %12 ]
  %16 = load float, ptr %6, align 4, !tbaa !135
  %17 = fcmp nsz ogt float %15, %16
  br i1 %17, label %18, label %20

18:                                               ; preds = %14
  %19 = load float, ptr %6, align 4, !tbaa !135
  br label %30

20:                                               ; preds = %14
  %21 = load float, ptr %4, align 4, !tbaa !135
  %22 = load float, ptr %5, align 4, !tbaa !135
  %23 = fcmp nsz ogt float %21, %22
  br i1 %23, label %24, label %26

24:                                               ; preds = %20
  %25 = load float, ptr %4, align 4, !tbaa !135
  br label %28

26:                                               ; preds = %20
  %27 = load float, ptr %5, align 4, !tbaa !135
  br label %28

28:                                               ; preds = %26, %24
  %29 = phi nsz float [ %25, %24 ], [ %27, %26 ]
  br label %30

30:                                               ; preds = %28, %18
  %31 = phi nsz float [ %19, %18 ], [ %29, %28 ]
  ret float %31
}

; Function Attrs: alwaysinline nounwind uwtable
define internal float @av_int2float(i32 noundef %0) #3 {
  %2 = alloca i32, align 4
  %3 = alloca %union.av_intfloat32, align 4
  store i32 %0, ptr %2, align 4, !tbaa !30
  call void @llvm.lifetime.start.p0(i64 4, ptr %3) #9
  %4 = load i32, ptr %2, align 4, !tbaa !30
  store i32 %4, ptr %3, align 4, !tbaa !36
  %5 = load float, ptr %3, align 4, !tbaa !36
  call void @llvm.lifetime.end.p0(i64 4, ptr %3) #9
  ret float %5
}

; Function Attrs: alwaysinline nounwind willreturn memory(none) uwtable
define internal i32 @av_bswap32(i32 noundef %0) #4 {
  %2 = alloca i32, align 4
  store i32 %0, ptr %2, align 4, !tbaa !30
  %3 = load i32, ptr %2, align 4, !tbaa !30
  %4 = shl i32 %3, 8
  %5 = and i32 %4, 65280
  %6 = load i32, ptr %2, align 4, !tbaa !30
  %7 = lshr i32 %6, 8
  %8 = and i32 %7, 255
  %9 = or i32 %5, %8
  %10 = shl i32 %9, 16
  %11 = load i32, ptr %2, align 4, !tbaa !30
  %12 = lshr i32 %11, 16
  %13 = shl i32 %12, 8
  %14 = and i32 %13, 65280
  %15 = load i32, ptr %2, align 4, !tbaa !30
  %16 = lshr i32 %15, 16
  %17 = lshr i32 %16, 8
  %18 = and i32 %17, 255
  %19 = or i32 %14, %18
  %20 = or i32 %10, %19
  ret i32 %20
}

; Function Attrs: alwaysinline nounwind uwtable
define internal void @planar_rgbf32_to_uv(ptr noundef %0, ptr noundef %1, ptr noundef %2, i32 noundef %3, i32 noundef %4, ptr noundef %5) #3 {
  %7 = alloca ptr, align 8
  %8 = alloca ptr, align 8
  %9 = alloca ptr, align 8
  %10 = alloca i32, align 4
  %11 = alloca i32, align 4
  %12 = alloca ptr, align 8
  %13 = alloca i32, align 4
  %14 = alloca ptr, align 8
  %15 = alloca ptr, align 8
  %16 = alloca ptr, align 8
  %17 = alloca i32, align 4
  %18 = alloca i32, align 4
  %19 = alloca i32, align 4
  %20 = alloca i32, align 4
  %21 = alloca i32, align 4
  %22 = alloca i32, align 4
  %23 = alloca i32, align 4
  %24 = alloca i32, align 4
  %25 = alloca i32, align 4
  store ptr %0, ptr %7, align 8, !tbaa !34
  store ptr %1, ptr %8, align 8, !tbaa !34
  store ptr %2, ptr %9, align 8, !tbaa !47
  store i32 %3, ptr %10, align 4, !tbaa !30
  store i32 %4, ptr %11, align 4, !tbaa !30
  store ptr %5, ptr %12, align 8, !tbaa !35
  call void @llvm.lifetime.start.p0(i64 4, ptr %13) #9
  call void @llvm.lifetime.start.p0(i64 8, ptr %14) #9
  %26 = load ptr, ptr %9, align 8, !tbaa !47
  store ptr %26, ptr %14, align 8, !tbaa !130
  call void @llvm.lifetime.start.p0(i64 8, ptr %15) #9
  %27 = load ptr, ptr %7, align 8, !tbaa !34
  store ptr %27, ptr %15, align 8, !tbaa !43
  call void @llvm.lifetime.start.p0(i64 8, ptr %16) #9
  %28 = load ptr, ptr %8, align 8, !tbaa !34
  store ptr %28, ptr %16, align 8, !tbaa !43
  call void @llvm.lifetime.start.p0(i64 4, ptr %17) #9
  %29 = load ptr, ptr %12, align 8, !tbaa !35
  %30 = getelementptr inbounds i32, ptr %29, i64 3
  %31 = load i32, ptr %30, align 4, !tbaa !30
  store i32 %31, ptr %17, align 4, !tbaa !30
  call void @llvm.lifetime.start.p0(i64 4, ptr %18) #9
  %32 = load ptr, ptr %12, align 8, !tbaa !35
  %33 = getelementptr inbounds i32, ptr %32, i64 4
  %34 = load i32, ptr %33, align 4, !tbaa !30
  store i32 %34, ptr %18, align 4, !tbaa !30
  call void @llvm.lifetime.start.p0(i64 4, ptr %19) #9
  %35 = load ptr, ptr %12, align 8, !tbaa !35
  %36 = getelementptr inbounds i32, ptr %35, i64 5
  %37 = load i32, ptr %36, align 4, !tbaa !30
  store i32 %37, ptr %19, align 4, !tbaa !30
  call void @llvm.lifetime.start.p0(i64 4, ptr %20) #9
  %38 = load ptr, ptr %12, align 8, !tbaa !35
  %39 = getelementptr inbounds i32, ptr %38, i64 6
  %40 = load i32, ptr %39, align 4, !tbaa !30
  store i32 %40, ptr %20, align 4, !tbaa !30
  call void @llvm.lifetime.start.p0(i64 4, ptr %21) #9
  %41 = load ptr, ptr %12, align 8, !tbaa !35
  %42 = getelementptr inbounds i32, ptr %41, i64 7
  %43 = load i32, ptr %42, align 4, !tbaa !30
  store i32 %43, ptr %21, align 4, !tbaa !30
  call void @llvm.lifetime.start.p0(i64 4, ptr %22) #9
  %44 = load ptr, ptr %12, align 8, !tbaa !35
  %45 = getelementptr inbounds i32, ptr %44, i64 8
  %46 = load i32, ptr %45, align 4, !tbaa !30
  store i32 %46, ptr %22, align 4, !tbaa !30
  store i32 0, ptr %13, align 4, !tbaa !30
  br label %47

47:                                               ; preds = %169, %6
  %48 = load i32, ptr %13, align 4, !tbaa !30
  %49 = load i32, ptr %10, align 4, !tbaa !30
  %50 = icmp slt i32 %48, %49
  br i1 %50, label %51, label %172

51:                                               ; preds = %47
  call void @llvm.lifetime.start.p0(i64 4, ptr %23) #9
  %52 = load i32, ptr %11, align 4, !tbaa !30
  %53 = icmp ne i32 %52, 0
  br i1 %53, label %54, label %64

54:                                               ; preds = %51
  %55 = load ptr, ptr %14, align 8, !tbaa !130
  %56 = getelementptr inbounds ptr, ptr %55, i64 0
  %57 = load ptr, ptr %56, align 8, !tbaa !132
  %58 = load i32, ptr %13, align 4, !tbaa !30
  %59 = sext i32 %58 to i64
  %60 = getelementptr inbounds float, ptr %57, i64 %59
  %61 = load i32, ptr %60, align 1, !tbaa !36
  %62 = call i32 @av_bswap32(i32 noundef %61) #10
  %63 = call nsz float @av_int2float(i32 noundef %62)
  br label %73

64:                                               ; preds = %51
  %65 = load ptr, ptr %14, align 8, !tbaa !130
  %66 = getelementptr inbounds ptr, ptr %65, i64 0
  %67 = load ptr, ptr %66, align 8, !tbaa !132
  %68 = load i32, ptr %13, align 4, !tbaa !30
  %69 = sext i32 %68 to i64
  %70 = getelementptr inbounds float, ptr %67, i64 %69
  %71 = load i32, ptr %70, align 1, !tbaa !36
  %72 = call nsz float @av_int2float(i32 noundef %71)
  br label %73

73:                                               ; preds = %64, %54
  %74 = phi nsz float [ %63, %54 ], [ %72, %64 ]
  %75 = fmul nsz float 6.553500e+04, %74
  %76 = call nsz float @av_clipf_c(float noundef %75, float noundef 0.000000e+00, float noundef 6.553500e+04) #10
  %77 = call i64 @llvm.lrint.i64.f32(float %76)
  %78 = trunc i64 %77 to i32
  store i32 %78, ptr %23, align 4, !tbaa !30
  call void @llvm.lifetime.start.p0(i64 4, ptr %24) #9
  %79 = load i32, ptr %11, align 4, !tbaa !30
  %80 = icmp ne i32 %79, 0
  br i1 %80, label %81, label %91

81:                                               ; preds = %73
  %82 = load ptr, ptr %14, align 8, !tbaa !130
  %83 = getelementptr inbounds ptr, ptr %82, i64 1
  %84 = load ptr, ptr %83, align 8, !tbaa !132
  %85 = load i32, ptr %13, align 4, !tbaa !30
  %86 = sext i32 %85 to i64
  %87 = getelementptr inbounds float, ptr %84, i64 %86
  %88 = load i32, ptr %87, align 1, !tbaa !36
  %89 = call i32 @av_bswap32(i32 noundef %88) #10
  %90 = call nsz float @av_int2float(i32 noundef %89)
  br label %100

91:                                               ; preds = %73
  %92 = load ptr, ptr %14, align 8, !tbaa !130
  %93 = getelementptr inbounds ptr, ptr %92, i64 1
  %94 = load ptr, ptr %93, align 8, !tbaa !132
  %95 = load i32, ptr %13, align 4, !tbaa !30
  %96 = sext i32 %95 to i64
  %97 = getelementptr inbounds float, ptr %94, i64 %96
  %98 = load i32, ptr %97, align 1, !tbaa !36
  %99 = call nsz float @av_int2float(i32 noundef %98)
  br label %100

100:                                              ; preds = %91, %81
  %101 = phi nsz float [ %90, %81 ], [ %99, %91 ]
  %102 = fmul nsz float 6.553500e+04, %101
  %103 = call nsz float @av_clipf_c(float noundef %102, float noundef 0.000000e+00, float noundef 6.553500e+04) #10
  %104 = call i64 @llvm.lrint.i64.f32(float %103)
  %105 = trunc i64 %104 to i32
  store i32 %105, ptr %24, align 4, !tbaa !30
  call void @llvm.lifetime.start.p0(i64 4, ptr %25) #9
  %106 = load i32, ptr %11, align 4, !tbaa !30
  %107 = icmp ne i32 %106, 0
  br i1 %107, label %108, label %118

108:                                              ; preds = %100
  %109 = load ptr, ptr %14, align 8, !tbaa !130
  %110 = getelementptr inbounds ptr, ptr %109, i64 2
  %111 = load ptr, ptr %110, align 8, !tbaa !132
  %112 = load i32, ptr %13, align 4, !tbaa !30
  %113 = sext i32 %112 to i64
  %114 = getelementptr inbounds float, ptr %111, i64 %113
  %115 = load i32, ptr %114, align 1, !tbaa !36
  %116 = call i32 @av_bswap32(i32 noundef %115) #10
  %117 = call nsz float @av_int2float(i32 noundef %116)
  br label %127

118:                                              ; preds = %100
  %119 = load ptr, ptr %14, align 8, !tbaa !130
  %120 = getelementptr inbounds ptr, ptr %119, i64 2
  %121 = load ptr, ptr %120, align 8, !tbaa !132
  %122 = load i32, ptr %13, align 4, !tbaa !30
  %123 = sext i32 %122 to i64
  %124 = getelementptr inbounds float, ptr %121, i64 %123
  %125 = load i32, ptr %124, align 1, !tbaa !36
  %126 = call nsz float @av_int2float(i32 noundef %125)
  br label %127

127:                                              ; preds = %118, %108
  %128 = phi nsz float [ %117, %108 ], [ %126, %118 ]
  %129 = fmul nsz float 6.553500e+04, %128
  %130 = call nsz float @av_clipf_c(float noundef %129, float noundef 0.000000e+00, float noundef 6.553500e+04) #10
  %131 = call i64 @llvm.lrint.i64.f32(float %130)
  %132 = trunc i64 %131 to i32
  store i32 %132, ptr %25, align 4, !tbaa !30
  %133 = load i32, ptr %17, align 4, !tbaa !30
  %134 = load i32, ptr %25, align 4, !tbaa !30
  %135 = mul nsw i32 %133, %134
  %136 = load i32, ptr %18, align 4, !tbaa !30
  %137 = load i32, ptr %23, align 4, !tbaa !30
  %138 = mul nsw i32 %136, %137
  %139 = add nsw i32 %135, %138
  %140 = load i32, ptr %19, align 4, !tbaa !30
  %141 = load i32, ptr %24, align 4, !tbaa !30
  %142 = mul nsw i32 %140, %141
  %143 = add nsw i32 %139, %142
  %144 = add nsw i32 %143, 1073758208
  %145 = ashr i32 %144, 15
  %146 = trunc i32 %145 to i16
  %147 = load ptr, ptr %15, align 8, !tbaa !43
  %148 = load i32, ptr %13, align 4, !tbaa !30
  %149 = sext i32 %148 to i64
  %150 = getelementptr inbounds i16, ptr %147, i64 %149
  store i16 %146, ptr %150, align 2, !tbaa !44
  %151 = load i32, ptr %20, align 4, !tbaa !30
  %152 = load i32, ptr %25, align 4, !tbaa !30
  %153 = mul nsw i32 %151, %152
  %154 = load i32, ptr %21, align 4, !tbaa !30
  %155 = load i32, ptr %23, align 4, !tbaa !30
  %156 = mul nsw i32 %154, %155
  %157 = add nsw i32 %153, %156
  %158 = load i32, ptr %22, align 4, !tbaa !30
  %159 = load i32, ptr %24, align 4, !tbaa !30
  %160 = mul nsw i32 %158, %159
  %161 = add nsw i32 %157, %160
  %162 = add nsw i32 %161, 1073758208
  %163 = ashr i32 %162, 15
  %164 = trunc i32 %163 to i16
  %165 = load ptr, ptr %16, align 8, !tbaa !43
  %166 = load i32, ptr %13, align 4, !tbaa !30
  %167 = sext i32 %166 to i64
  %168 = getelementptr inbounds i16, ptr %165, i64 %167
  store i16 %164, ptr %168, align 2, !tbaa !44
  call void @llvm.lifetime.end.p0(i64 4, ptr %25) #9
  call void @llvm.lifetime.end.p0(i64 4, ptr %24) #9
  call void @llvm.lifetime.end.p0(i64 4, ptr %23) #9
  br label %169

169:                                              ; preds = %127
  %170 = load i32, ptr %13, align 4, !tbaa !30
  %171 = add nsw i32 %170, 1
  store i32 %171, ptr %13, align 4, !tbaa !30
  br label %47, !llvm.loop !134

172:                                              ; preds = %47
  call void @llvm.lifetime.end.p0(i64 4, ptr %22) #9
  call void @llvm.lifetime.end.p0(i64 4, ptr %21) #9
  call void @llvm.lifetime.end.p0(i64 4, ptr %20) #9
  call void @llvm.lifetime.end.p0(i64 4, ptr %19) #9
  call void @llvm.lifetime.end.p0(i64 4, ptr %18) #9
  call void @llvm.lifetime.end.p0(i64 4, ptr %17) #9
  call void @llvm.lifetime.end.p0(i64 8, ptr %16) #9
  call void @llvm.lifetime.end.p0(i64 8, ptr %15) #9
  call void @llvm.lifetime.end.p0(i64 8, ptr %14) #9
  call void @llvm.lifetime.end.p0(i64 4, ptr %13) #9
  ret void
}

; Function Attrs: nounwind uwtable
define internal void @planar_rgbf32le_to_uv(ptr noundef %0, ptr noundef %1, ptr noundef %2, i32 noundef %3, ptr noundef %4, ptr noundef %5) #2 {
  %7 = alloca ptr, align 8
  %8 = alloca ptr, align 8
  %9 = alloca ptr, align 8
  %10 = alloca i32, align 4
  %11 = alloca ptr, align 8
  %12 = alloca ptr, align 8
  store ptr %0, ptr %7, align 8, !tbaa !34
  store ptr %1, ptr %8, align 8, !tbaa !34
  store ptr %2, ptr %9, align 8, !tbaa !47
  store i32 %3, ptr %10, align 4, !tbaa !30
  store ptr %4, ptr %11, align 8, !tbaa !35
  store ptr %5, ptr %12, align 8, !tbaa !31
  %13 = load ptr, ptr %7, align 8, !tbaa !34
  %14 = load ptr, ptr %8, align 8, !tbaa !34
  %15 = load ptr, ptr %9, align 8, !tbaa !47
  %16 = load i32, ptr %10, align 4, !tbaa !30
  %17 = load ptr, ptr %11, align 8, !tbaa !35
  call void @planar_rgbf32_to_uv(ptr noundef %13, ptr noundef %14, ptr noundef %15, i32 noundef %16, i32 noundef 0, ptr noundef %17)
  ret void
}