; Function Attrs: nofree norecurse nosync nounwind memory(read, argmem: readwrite, inaccessiblemem: none) uwtable
define internal void @planar_rgbf32le_to_uv(ptr noundef writeonly captures(none) %0, ptr noundef writeonly captures(none) %1, ptr noundef readonly captures(none) %2, i32 noundef %3, ptr noundef readonly captures(none) %4, ptr readnone captures(none) %5) #2 {
  %7 = getelementptr inbounds nuw i8, ptr %4, i64 12
  %8 = load i32, ptr %7, align 4, !tbaa !42
  %9 = getelementptr inbounds nuw i8, ptr %4, i64 16
  %10 = load i32, ptr %9, align 4, !tbaa !42
  %11 = getelementptr inbounds nuw i8, ptr %4, i64 20
  %12 = load i32, ptr %11, align 4, !tbaa !42
  %13 = getelementptr inbounds nuw i8, ptr %4, i64 24
  %14 = load i32, ptr %13, align 4, !tbaa !42
  %15 = getelementptr inbounds nuw i8, ptr %4, i64 28
  %16 = load i32, ptr %15, align 4, !tbaa !42
  %17 = getelementptr inbounds nuw i8, ptr %4, i64 32
  %18 = load i32, ptr %17, align 4, !tbaa !42
  %19 = icmp sgt i32 %3, 0
  br i1 %19, label %.lr.ph, label %planar_rgbf32_to_uv.exit

.lr.ph:                                           ; preds = %6
  %20 = load ptr, ptr %2, align 8, !tbaa !48
  %21 = getelementptr inbounds nuw i8, ptr %2, i64 8
  %22 = load ptr, ptr %21, align 8, !tbaa !48
  %23 = getelementptr inbounds nuw i8, ptr %2, i64 16
  %24 = load ptr, ptr %23, align 8, !tbaa !48
  %wide.trip.count = zext nneg i32 %3 to i64
  br label %25

25:                                               ; preds = %.lr.ph, %25
  %indvars.iv = phi i64 [ 0, %.lr.ph ], [ %indvars.iv.next, %25 ]
  %26 = getelementptr inbounds nuw float, ptr %20, i64 %indvars.iv
  %27 = load float, ptr %26, align 1, !tbaa !34
  %28 = fmul nsz float %27, 6.553500e+04
  %29 = fcmp nsz ogt float %28, 0.000000e+00
  %30 = select nsz i1 %29, float %28, float 0.000000e+00
  %31 = fcmp nsz ogt float %30, 6.553500e+04
  %..i5 = select nsz i1 %31, float 6.553500e+04, float %30
  %32 = tail call i64 @llvm.lrint.i64.f32(float %..i5)
  %33 = trunc i64 %32 to i32
  %34 = getelementptr inbounds nuw float, ptr %22, i64 %indvars.iv
  %35 = load float, ptr %34, align 1, !tbaa !34
  %36 = fmul nsz float %35, 6.553500e+04
  %37 = fcmp nsz ogt float %36, 0.000000e+00
  %38 = select nsz i1 %37, float %36, float 0.000000e+00
  %39 = fcmp nsz ogt float %38, 6.553500e+04
  %..i4 = select nsz i1 %39, float 6.553500e+04, float %38
  %40 = tail call i64 @llvm.lrint.i64.f32(float %..i4)
  %41 = trunc i64 %40 to i32
  %42 = getelementptr inbounds nuw float, ptr %24, i64 %indvars.iv
  %43 = load float, ptr %42, align 1, !tbaa !34
  %44 = fmul nsz float %43, 6.553500e+04
  %45 = fcmp nsz ogt float %44, 0.000000e+00
  %46 = select nsz i1 %45, float %44, float 0.000000e+00
  %47 = fcmp nsz ogt float %46, 6.553500e+04
  %..i = select nsz i1 %47, float 6.553500e+04, float %46
  %48 = tail call i64 @llvm.lrint.i64.f32(float %..i)
  %49 = trunc i64 %48 to i32
  %50 = mul nsw i32 %8, %49
  %51 = mul nsw i32 %10, %33
  %52 = mul nsw i32 %12, %41
  %53 = add i32 %51, 1073758208
  %54 = add i32 %53, %52
  %55 = add i32 %54, %50
  %56 = lshr i32 %55, 15
  %57 = trunc i32 %56 to i16
  %58 = getelementptr inbounds nuw i16, ptr %0, i64 %indvars.iv
  store i16 %57, ptr %58, align 2, !tbaa !43
  %59 = mul nsw i32 %14, %49
  %60 = mul nsw i32 %16, %33
  %61 = mul nsw i32 %18, %41
  %62 = add i32 %60, 1073758208
  %63 = add i32 %62, %61
  %64 = add i32 %63, %59
  %65 = lshr i32 %64, 15
  %66 = trunc i32 %65 to i16
  %67 = getelementptr inbounds nuw i16, ptr %1, i64 %indvars.iv
  store i16 %66, ptr %67, align 2, !tbaa !43
  %indvars.iv.next = add nuw nsw i64 %indvars.iv, 1
  %exitcond.not = icmp eq i64 %indvars.iv.next, %wide.trip.count
  br i1 %exitcond.not, label %planar_rgbf32_to_uv.exit, label %25, !llvm.loop !50

planar_rgbf32_to_uv.exit:                         ; preds = %25, %6
  ret void
}